Certificate:
    Data:
        Version: 3 (0x2)
        Serial Number: 4097 (0x1001)
    Signature Algorithm: sha256WithRSAEncryption
        Issuer: C=FR, O=FenyoNet, CN=FenyoNet Certification Authority
        Validity
            Not Before: Sep  5 16:54:32 2016 GMT
            Not After : Aug 31 16:54:32 2036 GMT
        Subject: C=FR, O=FenyoNet, CN=aws-bouchon.fenyo.net
        Subject Public Key Info:
            Public Key Algorithm: rsaEncryption
                Public-Key: (4096 bit)
                Modulus:
                    00:cb:6f:42:65:2a:9c:6f:73:73:86:91:b3:07:c1:
                    24:96:12:72:ff:23:cb:e8:5d:88:fa:ec:66:10:a2:
                    6d:17:2d:0f:e4:ba:01:9b:ed:e8:f1:e1:77:fd:03:
                    9c:32:98:f9:a1:cd:f8:d7:02:41:a3:8a:e7:63:31:
                    2a:3b:2d:50:5f:01:a5:2a:7d:6b:31:a3:c0:58:89:
                    69:40:b4:f3:6f:2d:28:18:da:4f:95:44:e5:90:6e:
                    84:79:dd:c6:7f:40:2c:61:c9:61:f5:e1:ac:b0:45:
                    15:7a:2f:13:4f:4c:2b:36:d4:c3:e9:53:01:14:7b:
                    b5:1a:40:b5:d5:ce:b1:5a:73:3a:b4:a9:f4:51:32:
                    60:0f:9e:8b:af:47:43:fc:0e:96:ce:ab:dd:eb:62:
                    4a:45:53:12:fb:c8:30:47:1d:40:93:6d:c2:89:16:
                    d7:25:81:6a:c4:98:39:24:b1:4e:c2:44:d6:d3:39:
                    1f:a6:84:eb:ad:d3:5d:47:71:7d:83:b2:c6:ed:42:
                    5a:f4:0d:3c:64:1e:d1:5d:70:3e:e5:eb:ff:fa:fa:
                    57:e8:b4:46:86:2e:bd:04:40:f4:54:1e:34:2e:cf:
                    56:0d:93:11:c8:6f:69:f0:36:32:ac:5c:5e:76:99:
                    8a:f4:08:f9:46:b3:7a:66:23:71:38:a1:92:b8:f9:
                    b8:04:e9:ab:93:0c:b6:13:eb:c0:36:5e:a5:a1:42:
                    0f:45:42:45:bb:cb:76:97:59:56:04:9d:a0:a8:68:
                    dc:55:19:61:4a:9b:fb:36:04:11:7b:09:e0:72:5b:
                    8e:18:05:30:9f:d2:7a:6d:80:34:ee:d5:2c:67:26:
                    d7:51:3e:32:3f:18:19:d9:aa:86:10:ce:06:fc:48:
                    3d:ba:fd:62:69:dd:e6:d3:f8:e0:d6:ef:50:ea:ea:
                    03:bc:68:3f:44:bb:27:98:fc:68:e4:fe:7f:c7:0b:
                    81:05:a2:e4:4b:bb:34:b8:25:15:41:b2:82:13:5d:
                    88:b0:cd:c4:5a:c6:76:ff:78:15:49:84:1d:25:c0:
                    18:fa:75:1b:5c:de:0c:f0:e0:e4:61:7c:ab:41:de:
                    ed:1e:6b:cc:33:e8:72:b0:24:09:da:eb:f9:37:b4:
                    d0:62:4e:28:c7:86:b6:f2:d6:04:54:f1:c0:95:29:
                    1d:7c:95:b5:fb:dd:ad:e9:f1:47:7d:08:31:2b:4a:
                    d8:f0:41:b8:63:a3:03:c7:4b:f6:81:47:a6:a8:b8:
                    83:81:06:b0:f9:e8:15:b0:7c:5b:d8:1d:ae:64:11:
                    e3:d9:48:5c:04:43:36:2b:71:32:11:4a:7c:1d:31:
                    66:0d:62:14:a5:81:8a:10:2c:d8:38:59:d1:da:64:
                    07:26:0d
                Exponent: 65537 (0x10001)
        X509v3 extensions:
            X509v3 Subject Key Identifier: 
                86:8B:BB:B6:67:C5:04:D7:A9:B4:A0:0D:34:D4:74:EC:4B:3E:87:FC
            X509v3 Authority Key Identifier: 
                keyid:CF:5C:DE:F8:C2:27:8A:53:87:41:42:86:49:B5:59:FF:F9:1B:B5:7E

            X509v3 Basic Constraints: 
                CA:TRUE
    Signature Algorithm: sha256WithRSAEncryption
         40:21:88:57:d7:47:cd:6b:36:46:d5:51:1d:1a:22:d3:84:61:
         01:73:1f:a2:98:83:4e:46:d8:65:3b:cb:6e:8a:d5:35:7b:22:
         db:f5:8b:b1:9c:fb:ba:6b:c1:7c:5f:14:d6:c9:ee:f9:76:9b:
         a9:96:33:25:1f:50:30:bc:64:89:2d:13:74:95:72:36:59:70:
         fa:2c:98:d0:18:7d:58:2b:a2:14:05:0b:0b:74:71:66:b5:c8:
         e3:70:71:80:b4:30:80:68:2b:05:49:cb:9d:8c:54:35:16:c7:
         28:e8:94:e4:25:c8:0f:24:43:a0:37:05:8a:04:d1:09:92:eb:
         98:4f:4e:81:0d:74:ab:9a:b3:60:3e:4e:08:45:36:49:d3:66:
         ed:17:41:20:67:35:7a:e0:aa:f7:93:c0:2c:77:b2:ab:31:4d:
         bb:ed:22:1c:0f:95:54:c7:55:85:f5:84:dd:37:8a:22:dd:35:
         d0:f9:08:8e:87:29:33:a7:c1:e4:a3:69:b5:84:12:f8:52:f3:
         6b:e8:ff:be:b6:a4:d5:eb:7c:ec:45:a3:d2:13:b5:fb:1a:77:
         1f:98:4b:28:5c:a5:41:fe:45:36:a2:c7:fe:42:6d:5f:c7:00:
         3b:da:1e:47:c4:89:c7:46:05:5f:c7:d1:5c:14:9c:19:72:a6:
         d1:5d:42:6b:e8:64:8b:08:90:14:71:07:b4:0e:c2:55:c3:a4:
         27:95:40:ef:13:59:9a:a1:ca:75:2d:5b:65:90:f3:f9:b2:ee:
         5d:10:d9:d3:b1:c8:d0:de:59:8f:92:e1:48:65:89:3a:fe:39:
         09:3f:b4:c3:c2:3b:9d:21:a5:14:4e:c4:df:ed:b8:f6:c1:75:
         ef:6a:1d:1c:bc:2a:20:f0:0d:df:c0:26:9f:f1:fa:27:ac:9f:
         9c:56:b1:d6:4e:21:2f:4a:1f:c2:93:f5:4b:67:24:42:70:d5:
         de:1c:c0:58:76:db:1c:3f:25:13:46:9b:73:05:7a:6c:23:c0:
         cd:5d:a6:31:7b:46:6c:9f:98:1f:ce:6f:a8:6c:9c:09:28:7d:
         80:ed:a1:0b:10:89:3a:3a:5b:7f:b7:e8:fc:d5:2a:e2:11:fe:
         71:d5:c8:1a:43:24:67:81:bc:9d:d9:bb:a0:93:10:71:c0:ed:
         01:7e:35:d6:89:46:ff:5b:65:88:c5:45:d3:21:28:c3:1e:17:
         19:1f:ad:89:ca:56:2e:56:3e:25:4c:e1:76:77:ed:7c:67:7a:
         c6:8d:38:b8:48:ce:93:87:99:14:1f:a2:07:71:76:89:24:2a:
         5a:b8:49:dd:fc:63:d4:b1:c1:5a:2d:99:20:8a:98:d3:b7:68:
         c9:1d:65:f3:50:dc:3b:a4
-----BEGIN CERTIFICATE-----
MIIFVzCCAz+gAwIBAgICEAEwDQYJKoZIhvcNAQELBQAwSzELMAkGA1UEBhMCRlIx
ETAPBgNVBAoMCEZlbnlvTmV0MSkwJwYDVQQDDCBGZW55b05ldCBDZXJ0aWZpY2F0
aW9uIEF1dGhvcml0eTAeFw0xNjA5MDUxNjU0MzJaFw0zNjA4MzExNjU0MzJaMEAx
CzAJBgNVBAYTAkZSMREwDwYDVQQKDAhGZW55b05ldDEeMBwGA1UEAwwVYXdzLWJv
dWNob24uZmVueW8ubmV0MIICIjANBgkqhkiG9w0BAQEFAAOCAg8AMIICCgKCAgEA
y29CZSqcb3NzhpGzB8EklhJy/yPL6F2I+uxmEKJtFy0P5LoBm+3o8eF3/QOcMpj5
oc341wJBo4rnYzEqOy1QXwGlKn1rMaPAWIlpQLTzby0oGNpPlUTlkG6Eed3Gf0As
Yclh9eGssEUVei8TT0wrNtTD6VMBFHu1GkC11c6xWnM6tKn0UTJgD56Lr0dD/A6W
zqvd62JKRVMS+8gwRx1Ak23CiRbXJYFqxJg5JLFOwkTW0zkfpoTrrdNdR3F9g7LG
7UJa9A08ZB7RXXA+5ev/+vpX6LRGhi69BED0VB40Ls9WDZMRyG9p8DYyrFxedpmK
9Aj5RrN6ZiNxOKGSuPm4BOmrkwy2E+vANl6loUIPRUJFu8t2l1lWBJ2gqGjcVRlh
Spv7NgQRewngcluOGAUwn9J6bYA07tUsZybXUT4yPxgZ2aqGEM4G/Eg9uv1iad3m
0/jg1u9Q6uoDvGg/RLsnmPxo5P5/xwuBBaLkS7s0uCUVQbKCE12IsM3EWsZ2/3gV
SYQdJcAY+nUbXN4M8ODkYXyrQd7tHmvMM+hysCQJ2uv5N7TQYk4ox4a28tYEVPHA
lSkdfJW1+92t6fFHfQgxK0rY8EG4Y6MDx0v2gUemqLiDgQaw+egVsHxb2B2uZBHj
2UhcBEM2K3EyEUp8HTFmDWIUpYGKECzYOFnR2mQHJg0CAwEAAaNQME4wHQYDVR0O
BBYEFIaLu7ZnxQTXqbSgDTTUdOxLPof8MB8GA1UdIwQYMBaAFM9c3vjCJ4pTh0FC
hkm1Wf/5G7V+MAwGA1UdEwQFMAMBAf8wDQYJKoZIhvcNAQELBQADggIBAEAhiFfX
R81rNkbVUR0aItOEYQFzH6KYg05G2GU7y26K1TV7Itv1i7Gc+7prwXxfFNbJ7vl2
m6mWMyUfUDC8ZIktE3SVcjZZcPosmNAYfVgrohQFCwt0cWa1yONwcYC0MIBoKwVJ
y52MVDUWxyjolOQlyA8kQ6A3BYoE0QmS65hPToENdKuas2A+TghFNknTZu0XQSBn
NXrgqveTwCx3sqsxTbvtIhwPlVTHVYX1hN03iiLdNdD5CI6HKTOnweSjabWEEvhS
82vo/762pNXrfOxFo9ITtfsadx+YSyhcpUH+RTaix/5CbV/HADvaHkfEicdGBV/H
0VwUnBlyptFdQmvoZIsIkBRxB7QOwlXDpCeVQO8TWZqhynUtW2WQ8/my7l0Q2dOx
yNDeWY+S4UhliTr+OQk/tMPCO50hpRROxN/tuPbBde9qHRy8KiDwDd/AJp/x+ies
n5xWsdZOIS9KH8KT9UtnJEJw1d4cwFh22xw/JRNGm3MFemwjwM1dpjF7RmyfmB/O
b6hsnAkofYDtoQsQiTo6W3+36PzVKuIR/nHVyBpDJGeBvJ3Zu6CTEHHA7QF+NdaJ
Rv9bZYjFRdMhKMMeFxkfrYnKVi5WPiVM4XZ37XxnesaNOLhIzpOHmRQfogdxdokk
Klq4Sd38Y9SxwVotmSCKmNO3aMkdZfNQ3Duk
-----END CERTIFICATE-----
