Certificate:
    Data:
        Version: 3 (0x2)
        Serial Number: 4096 (0x1000)
    Signature Algorithm: sha256WithRSAEncryption
        Issuer: C=FR, O=FenyoNet, CN=FenyoNet Certification Authority
        Validity
            Not Before: Aug 28 23:39:09 2016 GMT
            Not After : Aug 23 23:39:09 2036 GMT
        Subject: C=FR, O=FenyoNet, CN=demo.fenyo.net
        Subject Public Key Info:
            Public Key Algorithm: rsaEncryption
                Public-Key: (4096 bit)
                Modulus:
                    00:b8:90:d9:58:f8:5e:6e:91:90:67:b3:bc:6c:e8:
                    e7:f5:0e:b4:9e:0e:ee:7f:e2:6f:39:9a:92:58:8e:
                    1d:af:99:65:19:07:70:77:b1:80:20:80:9d:18:df:
                    5d:46:cd:cf:49:49:c8:c4:d9:70:1e:ee:11:f0:d6:
                    0b:60:ea:40:5c:67:30:28:7b:4b:9f:02:6a:b2:c1:
                    73:af:74:ac:55:e9:dd:64:01:4d:30:c4:cb:f0:1d:
                    af:32:94:4e:b3:0d:d1:90:b9:00:cf:07:d8:d2:18:
                    4c:16:54:ad:70:67:16:33:66:9e:e8:b2:3e:ca:68:
                    8f:7d:60:c6:cc:43:f4:1d:93:5a:25:fe:aa:c4:4f:
                    84:7e:93:b6:a3:f7:4d:22:dc:e1:42:fc:c1:d5:6f:
                    bd:17:d9:dc:28:4d:81:40:4e:6c:80:fb:b7:be:f5:
                    3f:24:2c:92:26:9d:34:a8:ee:82:ff:ea:61:91:64:
                    d5:60:43:7f:c4:a4:85:55:d9:4f:14:38:fa:75:8f:
                    b7:74:51:25:3a:46:20:ac:86:0d:9d:5e:7c:2b:2d:
                    51:fb:6e:f8:02:1a:c1:d3:a9:4b:4e:d7:d3:70:53:
                    ac:73:b2:0a:cf:db:05:22:0f:34:b9:c2:36:0f:ed:
                    14:04:06:6e:95:13:fb:10:4c:4c:88:40:c2:b3:ce:
                    04:5d:89:0e:b7:d6:c6:0e:47:c4:72:4d:b4:b4:4e:
                    c6:10:a9:e4:d4:33:15:49:76:0b:2f:22:8f:d8:79:
                    ec:d2:95:71:1d:65:2a:dc:97:e5:48:83:57:79:22:
                    84:1b:e3:73:55:0c:94:9a:9d:f5:5f:54:93:b3:a3:
                    6a:65:03:fa:45:37:cd:67:43:df:75:c5:25:8a:b4:
                    7b:44:4e:bb:8a:00:fa:ff:6e:90:55:6b:8b:13:ac:
                    48:fa:02:07:ba:07:75:5b:89:12:1a:f5:82:0d:fc:
                    7b:01:0c:e5:16:4c:95:a2:80:d2:a6:d4:d5:74:b1:
                    b6:66:48:63:8e:0e:fc:39:1e:41:dd:5d:8b:90:71:
                    14:e0:73:d9:07:f6:29:fd:cc:0c:a0:2b:95:1f:e0:
                    9b:94:27:a5:5a:50:df:35:40:50:80:53:04:bb:29:
                    51:69:68:6b:b7:e9:6e:a1:64:cb:0b:7b:35:37:fa:
                    94:60:af:ce:0f:5f:a3:d0:da:e3:ba:52:ed:14:cd:
                    dc:33:31:2a:5e:05:99:05:4d:b8:2f:0f:c2:b5:d1:
                    ed:0a:93:cd:35:92:b8:8b:5c:1c:1d:9c:d2:33:43:
                    0d:0b:e9:0a:cd:62:c8:53:15:53:f2:53:bf:f4:b4:
                    88:67:45:aa:1e:0f:2a:0a:94:02:b9:e8:a6:a9:d8:
                    30:63:e7
                Exponent: 65537 (0x10001)
        X509v3 extensions:
            X509v3 Subject Key Identifier: 
                DD:92:FF:03:C2:DA:FB:86:CB:84:72:8C:9C:B0:76:1C:DC:C9:65:B2
            X509v3 Authority Key Identifier: 
                keyid:CF:5C:DE:F8:C2:27:8A:53:87:41:42:86:49:B5:59:FF:F9:1B:B5:7E

            X509v3 Basic Constraints: 
                CA:TRUE
    Signature Algorithm: sha256WithRSAEncryption
         35:0b:1b:a5:40:1f:8a:93:5f:fe:40:8d:bd:09:14:d0:ae:31:
         ed:4d:bd:bc:97:11:2e:4a:0c:f5:90:93:50:bc:1f:0b:98:97:
         c9:d0:11:0c:06:ab:19:12:cc:2e:a5:f5:d3:96:00:87:dc:de:
         7e:63:e3:e6:a3:47:25:e2:0b:25:2a:73:7a:1f:65:84:fe:f4:
         ec:28:f5:13:2b:9c:f3:5b:eb:df:9e:6f:79:d0:19:05:6f:c3:
         a8:07:57:e3:9d:a0:26:dc:89:eb:bb:fc:85:cf:7a:c8:90:0d:
         b0:61:a8:f3:5a:47:b5:9c:b3:13:50:36:cc:94:7e:01:f5:33:
         ea:b5:64:a5:01:5a:00:81:22:d6:55:26:1d:e0:01:cf:65:c8:
         61:17:09:31:fc:6e:34:bf:56:b5:19:61:f6:31:93:3c:56:a3:
         63:6e:d6:08:7a:1e:86:16:ff:fd:82:79:05:7b:1c:3f:fa:fb:
         7a:ea:2a:71:a6:61:22:d2:06:dd:21:dd:80:df:65:84:c4:38:
         59:b3:e6:19:79:ae:3b:2a:ff:c5:b3:f9:c9:99:4d:b6:4e:27:
         01:bb:ca:84:12:2e:74:04:84:b0:c2:fb:f3:0b:d0:6c:32:f5:
         e6:b6:df:85:87:53:ef:15:c1:f3:5a:23:ce:0a:0a:e5:0e:ae:
         c7:bd:3b:c1:6a:78:ac:47:e5:cd:f5:ce:3b:ef:cf:51:b4:93:
         43:09:8e:a9:94:d3:e8:27:8b:ce:16:73:4b:a9:c7:22:82:e7:
         71:e8:c1:21:17:19:6e:72:ae:f8:a3:52:b5:e2:68:99:1b:9d:
         2a:26:1d:c3:c5:94:65:fa:6d:c8:4a:07:6b:99:15:88:61:5b:
         84:62:5f:b4:49:58:ec:5e:b0:53:e0:d0:ad:a8:d3:30:a0:f6:
         c7:98:54:36:13:e3:3d:31:30:3a:fc:f3:af:e8:ba:b8:87:ad:
         3e:b1:3d:9d:75:76:32:e4:ee:77:3c:eb:42:44:77:16:c4:d7:
         73:cd:39:9f:68:5f:e5:6d:84:eb:7b:c2:94:d8:82:87:46:54:
         c5:da:b4:99:aa:8c:bf:b0:90:11:96:6b:2c:22:c5:0e:19:6c:
         f4:d1:d3:c5:42:a0:a9:21:81:b1:aa:a8:ba:61:98:7e:40:ce:
         8d:20:93:a4:cd:b8:b1:02:0c:f0:ae:e7:15:17:76:c8:3f:bf:
         c2:95:c8:68:0f:88:25:a9:5d:ae:16:b8:68:2a:32:d3:eb:85:
         c0:4e:ee:a4:13:e4:ab:d5:4b:63:36:b9:24:54:e1:c6:4a:1d:
         2d:c9:f7:87:69:b9:ec:36:f0:d3:a3:30:c0:6c:99:54:2e:df:
         07:84:8d:2e:52:78:fe:a5
-----BEGIN CERTIFICATE-----
MIIFUDCCAzigAwIBAgICEAAwDQYJKoZIhvcNAQELBQAwSzELMAkGA1UEBhMCRlIx
ETAPBgNVBAoMCEZlbnlvTmV0MSkwJwYDVQQDDCBGZW55b05ldCBDZXJ0aWZpY2F0
aW9uIEF1dGhvcml0eTAeFw0xNjA4MjgyMzM5MDlaFw0zNjA4MjMyMzM5MDlaMDkx
CzAJBgNVBAYTAkZSMREwDwYDVQQKDAhGZW55b05ldDEXMBUGA1UEAwwOZGVtby5m
ZW55by5uZXQwggIiMA0GCSqGSIb3DQEBAQUAA4ICDwAwggIKAoICAQC4kNlY+F5u
kZBns7xs6Of1DrSeDu5/4m85mpJYjh2vmWUZB3B3sYAggJ0Y311Gzc9JScjE2XAe
7hHw1gtg6kBcZzAoe0ufAmqywXOvdKxV6d1kAU0wxMvwHa8ylE6zDdGQuQDPB9jS
GEwWVK1wZxYzZp7osj7KaI99YMbMQ/Qdk1ol/qrET4R+k7aj900i3OFC/MHVb70X
2dwoTYFATmyA+7e+9T8kLJImnTSo7oL/6mGRZNVgQ3/EpIVV2U8UOPp1j7d0USU6
RiCshg2dXnwrLVH7bvgCGsHTqUtO19NwU6xzsgrP2wUiDzS5wjYP7RQEBm6VE/sQ
TEyIQMKzzgRdiQ631sYOR8RyTbS0TsYQqeTUMxVJdgsvIo/YeezSlXEdZSrcl+VI
g1d5IoQb43NVDJSanfVfVJOzo2plA/pFN81nQ991xSWKtHtETruKAPr/bpBVa4sT
rEj6Age6B3VbiRIa9YIN/HsBDOUWTJWigNKm1NV0sbZmSGOODvw5HkHdXYuQcRTg
c9kH9in9zAygK5Uf4JuUJ6VaUN81QFCAUwS7KVFpaGu36W6hZMsLezU3+pRgr84P
X6PQ2uO6Uu0UzdwzMSpeBZkFTbgvD8K10e0Kk801kriLXBwdnNIzQw0L6QrNYshT
FVPyU7/0tIhnRaoeDyoKlAK56Kap2DBj5wIDAQABo1AwTjAdBgNVHQ4EFgQU3ZL/
A8La+4bLhHKMnLB2HNzJZbIwHwYDVR0jBBgwFoAUz1ze+MInilOHQUKGSbVZ//kb
tX4wDAYDVR0TBAUwAwEB/zANBgkqhkiG9w0BAQsFAAOCAgEANQsbpUAfipNf/kCN
vQkU0K4x7U29vJcRLkoM9ZCTULwfC5iXydARDAarGRLMLqX105YAh9zefmPj5qNH
JeILJSpzeh9lhP707Cj1Eyuc81vr355vedAZBW/DqAdX452gJtyJ67v8hc96yJAN
sGGo81pHtZyzE1A2zJR+AfUz6rVkpQFaAIEi1lUmHeABz2XIYRcJMfxuNL9WtRlh
9jGTPFajY27WCHoehhb//YJ5BXscP/r7euoqcaZhItIG3SHdgN9lhMQ4WbPmGXmu
Oyr/xbP5yZlNtk4nAbvKhBIudASEsML78wvQbDL15rbfhYdT7xXB81ojzgoK5Q6u
x707wWp4rEflzfXOO+/PUbSTQwmOqZTT6CeLzhZzS6nHIoLncejBIRcZbnKu+KNS
teJomRudKiYdw8WUZfptyEoHa5kViGFbhGJftElY7F6wU+DQrajTMKD2x5hUNhPj
PTEwOvzzr+i6uIetPrE9nXV2MuTudzzrQkR3FsTXc805n2hf5W2E63vClNiCh0ZU
xdq0maqMv7CQEZZrLCLFDhls9NHTxUKgqSGBsaqoumGYfkDOjSCTpM24sQIM8K7n
FRd2yD+/wpXIaA+IJaldrha4aCoy0+uFwE7upBPkq9VLYza5JFThxkodLcn3h2m5
7Dbw06MwwGyZVC7fB4SNLlJ4/qU=
-----END CERTIFICATE-----
